; Function Attrs: mustprogress uwtable
define internal noundef ptr @_ZN7rocksdb12_GLOBAL__N_115HashSkipListRep24GetDynamicPrefixIteratorEPNS_5ArenaE(ptr noundef nonnull align 8 dereferenceable(64) %this, ptr noundef %arena) unnamed_addr #3 align 2 personality ptr @__gxx_personality_v0 {
entry:
  %cmp = icmp eq ptr %arena, null
  br i1 %cmp, label %if.then, label %if.else

if.then:                                          ; preds = %entry
  %call = tail call noalias noundef nonnull dereferenceable(88) ptr @_Znwm(i64 noundef 88) #23
  br label %return

if.else:                                          ; preds = %entry
  %vtable = load ptr, ptr %arena, align 16
  %vfn = getelementptr inbounds i8, ptr %vtable, i64 24
  %0 = load ptr, ptr %vfn, align 8
  %call2 = tail call noundef ptr %0(ptr noundef nonnull align 16 dereferenceable(2288) %arena, i64 noundef 88, i64 noundef 0, ptr noundef null)
  br label %return

return:                                           ; preds = %if.then, %if.else
  %call.sink10 = phi ptr [ %call, %if.then ], [ %call2, %if.else ]
  store ptr getelementptr inbounds ({ [13 x ptr] }, ptr @_ZTVN7rocksdb12_GLOBAL__N_115HashSkipListRep8IteratorE, i64 0, i32 0, i64 2), ptr %call.sink10, align 8
  %list_.i.i = getelementptr inbounds i8, ptr %call.sink10, i64 8
  %arena_.i.i = getelementptr inbounds i8, ptr %call.sink10, i64 40
  store ptr null, ptr %arena_.i.i, align 8
  %tmp_.i.i = getelementptr inbounds i8, ptr %call.sink10, i64 48
  tail call void @llvm.memset.p0.i64(ptr noundef nonnull align 8 dereferenceable(25) %list_.i.i, i8 0, i64 25, i1 false)
  tail call void @_ZNSt7__cxx1112basic_stringIcSt11char_traitsIcESaIcEEC1Ev(ptr noundef nonnull align 8 dereferenceable(32) %tmp_.i.i) #22
  store ptr getelementptr inbounds ({ [13 x ptr] }, ptr @_ZTVN7rocksdb12_GLOBAL__N_115HashSkipListRep15DynamicIteratorE, i64 0, i32 0, i64 2), ptr %call.sink10, align 8
  %memtable_rep_.i = getelementptr inbounds i8, ptr %call.sink10, i64 80
  store ptr %this, ptr %memtable_rep_.i, align 8
  ret ptr %call.sink10
}